target datalayout = "e-m:e-p270:32:32-p271:32:32-p272:64:64-i64:64-i128:128-f80:128-n8:16:32:64-S128"
target triple = "x86_64-pc-linux-gnu"

%class.CodeHeap = type { %class.VirtualSpace, %class.VirtualSpace, i64, i64, i64, i32, i64, ptr, ptr, i64, i32, i64, ptr, i32, i32, i32, i32, i32, i32 }
%class.VirtualSpace = type { ptr, ptr, ptr, ptr, i8, i8, ptr, ptr, ptr, ptr, ptr, ptr, i64, i64, i64 }

@_ZN9CodeCache6_heapsE = hidden global ptr null, align 8
@_ZN9CodeCache14_nmethod_heapsE = hidden global ptr null, align 8
@_ZN9CodeCache16_allocable_heapsE = hidden global ptr null, align 8

; Function Attrs: mustprogress nounwind uwtable
define linkonce_odr hidden noundef zeroext i1 @_ZN9CodeCache32code_blob_type_accepts_allocableE12CodeBlobType(i32 noundef %0) #1 comdat align 2 {
  %2 = alloca i32, align 4
  store i32 %0, ptr %2, align 4
  %3 = load i32, ptr %2, align 4
  %4 = icmp sle i32 %3, 3
  ret i1 %4
}

; Function Attrs: mustprogress nounwind uwtable
define linkonce_odr hidden noundef zeroext i1 @_ZN9CodeCache30code_blob_type_accepts_nmethodE12CodeBlobType(i32 noundef %0) #1 comdat align 2 {
  %2 = alloca i32, align 4
  store i32 %0, ptr %2, align 4
  %3 = load i32, ptr %2, align 4
  %4 = icmp eq i32 %3, 3
  br i1 %4, label %8, label %5

5:                                                ; preds = %1
  %6 = load i32, ptr %2, align 4
  %7 = icmp sle i32 %6, 1
  br label %8

8:                                                ; preds = %5, %1
  %9 = phi i1 [ true, %1 ], [ %7, %5 ]
  ret i1 %9
}

; Function Attrs: mustprogress nounwind uwtable
define linkonce_odr hidden noundef i32 @_ZNK8CodeHeap14code_blob_typeEv(ptr noundef nonnull align 8 dereferenceable(336) %0) #1 comdat align 2 {
  %2 = alloca ptr, align 8
  store ptr %0, ptr %2, align 8
  %3 = load ptr, ptr %2, align 8
  %4 = getelementptr inbounds %class.CodeHeap, ptr %3, i32 0, i32 13
  %5 = load i32, ptr %4, align 8
  ret i32 %5
}

; Function Attrs: mustprogress nounwind uwtable
define hidden void @_ZN9CodeCache8add_heapEP8CodeHeap(ptr noundef %0) #1 align 2 {
  %2 = alloca ptr, align 8
  %3 = alloca i32, align 4
  store ptr %0, ptr %2, align 8
  %4 = load ptr, ptr @_ZN9CodeCache6_heapsE, align 8
  %5 = call noundef ptr @_ZN26GrowableArrayWithAllocatorIP8CodeHeap13GrowableArrayIS1_EE13insert_sortedIXadL_ZN9CodeCache17code_heap_compareERKS1_S8_EEEES1_S8_(ptr noundef nonnull align 8 dereferenceable(16) %4, ptr noundef nonnull align 8 dereferenceable(8) %2)
  %6 = load ptr, ptr %2, align 8
  %7 = call noundef i32 @_ZNK8CodeHeap14code_blob_typeEv(ptr noundef nonnull align 8 dereferenceable(336) %6)
  store i32 %7, ptr %3, align 4
  %8 = load i32, ptr %3, align 4
  %9 = call noundef zeroext i1 @_ZN9CodeCache30code_blob_type_accepts_nmethodE12CodeBlobType(i32 noundef %8)
  br i1 %9, label %10, label %13

10:                                               ; preds = %1
  %11 = load ptr, ptr @_ZN9CodeCache14_nmethod_heapsE, align 8
  %12 = call noundef ptr @_ZN26GrowableArrayWithAllocatorIP8CodeHeap13GrowableArrayIS1_EE13insert_sortedIXadL_ZN9CodeCache17code_heap_compareERKS1_S8_EEEES1_S8_(ptr noundef nonnull align 8 dereferenceable(16) %11, ptr noundef nonnull align 8 dereferenceable(8) %2)
  br label %13

13:                                               ; preds = %10, %1
  %14 = load i32, ptr %3, align 4
  %15 = call noundef zeroext i1 @_ZN9CodeCache32code_blob_type_accepts_allocableE12CodeBlobType(i32 noundef %14)
  br i1 %15, label %16, label %19

16:                                               ; preds = %13
  %17 = load ptr, ptr @_ZN9CodeCache16_allocable_heapsE, align 8
  %18 = call noundef ptr @_ZN26GrowableArrayWithAllocatorIP8CodeHeap13GrowableArrayIS1_EE13insert_sortedIXadL_ZN9CodeCache17code_heap_compareERKS1_S8_EEEES1_S8_(ptr noundef nonnull align 8 dereferenceable(16) %17, ptr noundef nonnull align 8 dereferenceable(8) %2)
  br label %19

19:                                               ; preds = %16, %13
  ret void
}