; Function Attrs: mustprogress nounwind uwtable
define hidden void @_ZN9CodeCache8add_heapEP8CodeHeap(ptr noundef %0) local_unnamed_addr #1 align 2 {
  %2 = alloca ptr, align 8
  store ptr %0, ptr %2, align 8
  %3 = load ptr, ptr @_ZN9CodeCache6_heapsE, align 8
  %4 = call noundef ptr @_ZN26GrowableArrayWithAllocatorIP8CodeHeap13GrowableArrayIS1_EE13insert_sortedIXadL_ZN9CodeCache17code_heap_compareERKS1_S8_EEEES1_S8_(ptr noundef nonnull align 8 dereferenceable(16) %3, ptr noundef nonnull align 8 dereferenceable(8) %2)
  %5 = load ptr, ptr %2, align 8
  %6 = getelementptr inbounds i8, ptr %5, i64 312
  %7 = load i32, ptr %6, align 8
  %8 = icmp eq i32 %7, 3
  %9 = icmp slt i32 %7, 2
  %10 = or i1 %8, %9
  br i1 %10, label %.thread, label %13

.thread:                                          ; preds = %1
  %11 = load ptr, ptr @_ZN9CodeCache14_nmethod_heapsE, align 8
  %12 = call noundef ptr @_ZN26GrowableArrayWithAllocatorIP8CodeHeap13GrowableArrayIS1_EE13insert_sortedIXadL_ZN9CodeCache17code_heap_compareERKS1_S8_EEEES1_S8_(ptr noundef nonnull align 8 dereferenceable(16) %11, ptr noundef nonnull align 8 dereferenceable(8) %2)
  br label %15

13:                                               ; preds = %1
  %14 = icmp ult i32 %7, 4
  br i1 %14, label %15, label %18

15:                                               ; preds = %.thread, %13
  %16 = load ptr, ptr @_ZN9CodeCache16_allocable_heapsE, align 8
  %17 = call noundef ptr @_ZN26GrowableArrayWithAllocatorIP8CodeHeap13GrowableArrayIS1_EE13insert_sortedIXadL_ZN9CodeCache17code_heap_compareERKS1_S8_EEEES1_S8_(ptr noundef nonnull align 8 dereferenceable(16) %16, ptr noundef nonnull align 8 dereferenceable(8) %2)
  br label %18

18:                                               ; preds = %15, %13
  ret void
}